target datalayout = "e-m:e-p270:32:32-p271:32:32-p272:64:64-i64:64-i128:128-f80:128-n8:16:32:64-S128"
target triple = "x86_64-pc-linux-gnu"

%struct.RelationData = type { %struct.RelFileLocator, ptr, i32, i32, i8, i8, i8, i8, i8, i32, i32, i32, i32, ptr, ptr, i32, %struct.LockInfoData, ptr, ptr, ptr, ptr, ptr, i8, ptr, ptr, ptr, ptr, ptr, ptr, i32, ptr, i8, ptr, ptr, i32, i8, i32, ptr, i8, ptr, ptr, ptr, ptr, ptr, ptr, ptr, i32, ptr, ptr, ptr, ptr, ptr, ptr, ptr, ptr, ptr, ptr, ptr, ptr, ptr, ptr, ptr, ptr, ptr, ptr, ptr, i32, i8, ptr }
%struct.RelFileLocator = type { i32, i32, i32 }
%struct.LockInfoData = type { %struct.LockRelId }
%struct.LockRelId = type { i32, i32 }
%struct.FormData_pg_index = type { i32, i32, i16, i16, i8, i8, i8, i8, i8, i8, i8, i8, i8, i8, i8, %struct.int2vector }
%struct.int2vector = type { i32, i32, i32, i32, i32, i32, [0 x i16] }
%struct.SysScanDescData = type { ptr, ptr, ptr, ptr, ptr, ptr }
%struct.ScanKeyData = type { i32, i16, i16, i32, i32, %struct.FmgrInfo, i64 }
%struct.FmgrInfo = type { ptr, i32, i16, i8, i8, i8, ptr, ptr, ptr }
%struct.FormData_pg_class = type { i32, %struct.nameData, i32, i32, i32, i32, i32, i32, i32, i32, float, i32, i32, i8, i8, i8, i8, i16, i16, i8, i8, i8, i8, i8, i8, i8, i8, i32, i32, i32 }
%struct.nameData = type { [64 x i8] }

@IgnoreSystemIndexes = external global i8, align 1
@.str.3 = private unnamed_addr constant [23 x i8] c"column is not in index\00", align 1
@.str.4 = private unnamed_addr constant [8 x i8] c"genam.c\00", align 1
@CheckXidAlive = external global i32, align 4
@bsysscan = external global i8, align 1
@.str.6 = private unnamed_addr constant [53 x i8] c"cannot access index \22%s\22 while it is being reindexed\00", align 1
@__func__.systable_beginscan_ordered = private unnamed_addr constant [27 x i8] c"systable_beginscan_ordered\00", align 1
@.str.7 = private unnamed_addr constant [45 x i8] c"using index \22%s\22 despite IgnoreSystemIndexes\00", align 1

; Function Attrs: nounwind uwtable
define dso_local ptr @systable_beginscan_ordered(ptr noundef %0, ptr noundef %1, ptr noundef %2, i32 noundef %3, ptr noundef %4) #0 {
  %6 = alloca ptr, align 8
  %7 = alloca ptr, align 8
  %8 = alloca ptr, align 8
  %9 = alloca i32, align 4
  %10 = alloca ptr, align 8
  %11 = alloca ptr, align 8
  %12 = alloca i32, align 4
  %13 = alloca ptr, align 8
  %14 = alloca i32, align 4
  %15 = alloca i32, align 4
  store ptr %0, ptr %6, align 8
  store ptr %1, ptr %7, align 8
  store ptr %2, ptr %8, align 8
  store i32 %3, ptr %9, align 4
  store ptr %4, ptr %10, align 8
  call void @llvm.lifetime.start.p0(i64 8, ptr %11) #7
  call void @llvm.lifetime.start.p0(i64 4, ptr %12) #7
  call void @llvm.lifetime.start.p0(i64 8, ptr %13) #7
  %16 = load ptr, ptr %7, align 8
  %17 = getelementptr inbounds nuw %struct.RelationData, ptr %16, i32 0, i32 15
  %18 = load i32, ptr %17, align 8
  %19 = call zeroext i1 @ReindexIsProcessingIndex(i32 noundef %18)
  br i1 %19, label %20, label %38

20:                                               ; preds = %5
  br label %21

21:                                               ; preds = %20
  br i1 true, label %22, label %24

22:                                               ; preds = %21
  %23 = call zeroext i1 @errstart_cold(i32 noundef 21, ptr noundef null) #8
  br i1 %23, label %26, label %35

24:                                               ; preds = %21
  %25 = call zeroext i1 @errstart(i32 noundef 21, ptr noundef null)
  br i1 %25, label %26, label %35

26:                                               ; preds = %24, %22
  %27 = call i32 @errcode(i32 noundef 1088)
  %28 = load ptr, ptr %7, align 8
  %29 = getelementptr inbounds nuw %struct.RelationData, ptr %28, i32 0, i32 13
  %30 = load ptr, ptr %29, align 8
  %31 = getelementptr inbounds nuw %struct.FormData_pg_class, ptr %30, i32 0, i32 1
  %32 = getelementptr inbounds nuw %struct.nameData, ptr %31, i32 0, i32 0
  %33 = getelementptr inbounds [64 x i8], ptr %32, i64 0, i64 0
  %34 = call i32 (ptr, ...) @errmsg(ptr noundef @.str.6, ptr noundef %33)
  call void @errfinish(ptr noundef @.str.4, i32 noundef 667, ptr noundef @__func__.systable_beginscan_ordered)
  br label %35

35:                                               ; preds = %26, %24, %22
  unreachable

36:                                               ; No predecessors!
  br label %37

37:                                               ; preds = %36
  br label %38

38:                                               ; preds = %37, %5
  %39 = load i8, ptr @IgnoreSystemIndexes, align 1, !range !4, !noundef !5
  %40 = trunc i8 %39 to i1
  br i1 %40, label %41, label %58

41:                                               ; preds = %38
  br label %42

42:                                               ; preds = %41
  br i1 false, label %43, label %45

43:                                               ; preds = %42
  %44 = call zeroext i1 @errstart_cold(i32 noundef 19, ptr noundef null) #8
  br i1 %44, label %47, label %55

45:                                               ; preds = %42
  %46 = call zeroext i1 @errstart(i32 noundef 19, ptr noundef null)
  br i1 %46, label %47, label %55

47:                                               ; preds = %45, %43
  %48 = load ptr, ptr %7, align 8
  %49 = getelementptr inbounds nuw %struct.RelationData, ptr %48, i32 0, i32 13
  %50 = load ptr, ptr %49, align 8
  %51 = getelementptr inbounds nuw %struct.FormData_pg_class, ptr %50, i32 0, i32 1
  %52 = getelementptr inbounds nuw %struct.nameData, ptr %51, i32 0, i32 0
  %53 = getelementptr inbounds [64 x i8], ptr %52, i64 0, i64 0
  %54 = call i32 (ptr, ...) @errmsg_internal(ptr noundef @.str.7, ptr noundef %53)
  call void @errfinish(ptr noundef @.str.4, i32 noundef 671, ptr noundef @__func__.systable_beginscan_ordered)
  br label %55

55:                                               ; preds = %47, %45, %43
  br label %56

56:                                               ; preds = %55
  br label %57

57:                                               ; preds = %56
  br label %58

58:                                               ; preds = %57, %38
  %59 = call ptr @palloc(i64 noundef 48)
  store ptr %59, ptr %11, align 8
  %60 = load ptr, ptr %6, align 8
  %61 = load ptr, ptr %11, align 8
  %62 = getelementptr inbounds nuw %struct.SysScanDescData, ptr %61, i32 0, i32 0
  store ptr %60, ptr %62, align 8
  %63 = load ptr, ptr %7, align 8
  %64 = load ptr, ptr %11, align 8
  %65 = getelementptr inbounds nuw %struct.SysScanDescData, ptr %64, i32 0, i32 1
  store ptr %63, ptr %65, align 8
  %66 = load ptr, ptr %6, align 8
  %67 = call ptr @table_slot_create(ptr noundef %66, ptr noundef null)
  %68 = load ptr, ptr %11, align 8
  %69 = getelementptr inbounds nuw %struct.SysScanDescData, ptr %68, i32 0, i32 5
  store ptr %67, ptr %69, align 8
  %70 = load ptr, ptr %8, align 8
  %71 = icmp eq ptr %70, null
  br i1 %71, label %72, label %82

72:                                               ; preds = %58
  call void @llvm.lifetime.start.p0(i64 4, ptr %14) #7
  %73 = load ptr, ptr %6, align 8
  %74 = getelementptr inbounds nuw %struct.RelationData, ptr %73, i32 0, i32 15
  %75 = load i32, ptr %74, align 8
  store i32 %75, ptr %14, align 4
  %76 = load i32, ptr %14, align 4
  %77 = call ptr @GetCatalogSnapshot(i32 noundef %76)
  %78 = call ptr @RegisterSnapshot(ptr noundef %77)
  store ptr %78, ptr %8, align 8
  %79 = load ptr, ptr %8, align 8
  %80 = load ptr, ptr %11, align 8
  %81 = getelementptr inbounds nuw %struct.SysScanDescData, ptr %80, i32 0, i32 4
  store ptr %79, ptr %81, align 8
  call void @llvm.lifetime.end.p0(i64 4, ptr %14) #7
  br label %85

82:                                               ; preds = %58
  %83 = load ptr, ptr %11, align 8
  %84 = getelementptr inbounds nuw %struct.SysScanDescData, ptr %83, i32 0, i32 4
  store ptr null, ptr %84, align 8
  br label %85

85:                                               ; preds = %82, %72
  %86 = load i32, ptr %9, align 4
  %87 = sext i32 %86 to i64
  %88 = mul i64 72, %87
  %89 = call ptr @palloc(i64 noundef %88)
  store ptr %89, ptr %13, align 8
  store i32 0, ptr %12, align 4
  br label %90

90:                                               ; preds = %165, %85
  %91 = load i32, ptr %12, align 4
  %92 = load i32, ptr %9, align 4
  %93 = icmp slt i32 %91, %92
  br i1 %93, label %94, label %168

94:                                               ; preds = %90
  call void @llvm.lifetime.start.p0(i64 4, ptr %15) #7
  %95 = load ptr, ptr %13, align 8
  %96 = load i32, ptr %12, align 4
  %97 = sext i32 %96 to i64
  %98 = getelementptr inbounds %struct.ScanKeyData, ptr %95, i64 %97
  %99 = load ptr, ptr %10, align 8
  %100 = load i32, ptr %12, align 4
  %101 = sext i32 %100 to i64
  %102 = getelementptr inbounds %struct.ScanKeyData, ptr %99, i64 %101
  call void @llvm.memcpy.p0.p0.i64(ptr align 8 %98, ptr align 8 %102, i64 72, i1 false)
  store i32 0, ptr %15, align 4
  br label %103

103:                                              ; preds = %141, %94
  %104 = load i32, ptr %15, align 4
  %105 = load ptr, ptr %7, align 8
  %106 = getelementptr inbounds nuw %struct.RelationData, ptr %105, i32 0, i32 48
  %107 = load ptr, ptr %106, align 8
  %108 = getelementptr inbounds nuw %struct.FormData_pg_index, ptr %107, i32 0, i32 2
  %109 = load i16, ptr %108, align 4
  %110 = sext i16 %109 to i32
  %111 = icmp slt i32 %104, %110
  br i1 %111, label %112, label %144

112:                                              ; preds = %103
  %113 = load ptr, ptr %10, align 8
  %114 = load i32, ptr %12, align 4
  %115 = sext i32 %114 to i64
  %116 = getelementptr inbounds %struct.ScanKeyData, ptr %113, i64 %115
  %117 = getelementptr inbounds nuw %struct.ScanKeyData, ptr %116, i32 0, i32 1
  %118 = load i16, ptr %117, align 4
  %119 = sext i16 %118 to i32
  %120 = load ptr, ptr %7, align 8
  %121 = getelementptr inbounds nuw %struct.RelationData, ptr %120, i32 0, i32 48
  %122 = load ptr, ptr %121, align 8
  %123 = getelementptr inbounds nuw %struct.FormData_pg_index, ptr %122, i32 0, i32 15
  %124 = getelementptr inbounds nuw %struct.int2vector, ptr %123, i32 0, i32 6
  %125 = load i32, ptr %15, align 4
  %126 = sext i32 %125 to i64
  %127 = getelementptr inbounds [0 x i16], ptr %124, i64 0, i64 %126
  %128 = load i16, ptr %127, align 2
  %129 = sext i16 %128 to i32
  %130 = icmp eq i32 %119, %129
  br i1 %130, label %131, label %140

131:                                              ; preds = %112
  %132 = load i32, ptr %15, align 4
  %133 = add i32 %132, 1
  %134 = trunc i32 %133 to i16
  %135 = load ptr, ptr %13, align 8
  %136 = load i32, ptr %12, align 4
  %137 = sext i32 %136 to i64
  %138 = getelementptr inbounds %struct.ScanKeyData, ptr %135, i64 %137
  %139 = getelementptr inbounds nuw %struct.ScanKeyData, ptr %138, i32 0, i32 1
  store i16 %134, ptr %139, align 4
  br label %144

140:                                              ; preds = %112
  br label %141

141:                                              ; preds = %140
  %142 = load i32, ptr %15, align 4
  %143 = add i32 %142, 1
  store i32 %143, ptr %15, align 4
  br label %103, !llvm.loop !12

144:                                              ; preds = %131, %103
  %145 = load i32, ptr %15, align 4
  %146 = load ptr, ptr %7, align 8
  %147 = getelementptr inbounds nuw %struct.RelationData, ptr %146, i32 0, i32 48
  %148 = load ptr, ptr %147, align 8
  %149 = getelementptr inbounds nuw %struct.FormData_pg_index, ptr %148, i32 0, i32 2
  %150 = load i16, ptr %149, align 4
  %151 = sext i16 %150 to i32
  %152 = icmp eq i32 %145, %151
  br i1 %152, label %153, label %164

153:                                              ; preds = %144
  br label %154

154:                                              ; preds = %153
  br i1 true, label %155, label %157

155:                                              ; preds = %154
  %156 = call zeroext i1 @errstart_cold(i32 noundef 21, ptr noundef null) #8
  br i1 %156, label %159, label %161

157:                                              ; preds = %154
  %158 = call zeroext i1 @errstart(i32 noundef 21, ptr noundef null)
  br i1 %158, label %159, label %161

159:                                              ; preds = %157, %155
  %160 = call i32 (ptr, ...) @errmsg_internal(ptr noundef @.str.3)
  call void @errfinish(ptr noundef @.str.4, i32 noundef 710, ptr noundef @__func__.systable_beginscan_ordered)
  br label %161

161:                                              ; preds = %159, %157, %155
  unreachable

162:                                              ; No predecessors!
  br label %163

163:                                              ; preds = %162
  br label %164

164:                                              ; preds = %163, %144
  call void @llvm.lifetime.end.p0(i64 4, ptr %15) #7
  br label %165

165:                                              ; preds = %164
  %166 = load i32, ptr %12, align 4
  %167 = add i32 %166, 1
  store i32 %167, ptr %12, align 4
  br label %90, !llvm.loop !13

168:                                              ; preds = %90
  %169 = load ptr, ptr %6, align 8
  %170 = load ptr, ptr %7, align 8
  %171 = load ptr, ptr %8, align 8
  %172 = load i32, ptr %9, align 4
  %173 = call ptr @index_beginscan(ptr noundef %169, ptr noundef %170, ptr noundef %171, i32 noundef %172, i32 noundef 0)
  %174 = load ptr, ptr %11, align 8
  %175 = getelementptr inbounds nuw %struct.SysScanDescData, ptr %174, i32 0, i32 3
  store ptr %173, ptr %175, align 8
  %176 = load ptr, ptr %11, align 8
  %177 = getelementptr inbounds nuw %struct.SysScanDescData, ptr %176, i32 0, i32 3
  %178 = load ptr, ptr %177, align 8
  %179 = load ptr, ptr %13, align 8
  %180 = load i32, ptr %9, align 4
  call void @index_rescan(ptr noundef %178, ptr noundef %179, i32 noundef %180, ptr noundef null, i32 noundef 0)
  %181 = load ptr, ptr %11, align 8
  %182 = getelementptr inbounds nuw %struct.SysScanDescData, ptr %181, i32 0, i32 2
  store ptr null, ptr %182, align 8
  %183 = load ptr, ptr %13, align 8
  call void @pfree(ptr noundef %183)
  %184 = load i32, ptr @CheckXidAlive, align 4
  %185 = icmp ne i32 %184, 0
  br i1 %185, label %186, label %187

186:                                              ; preds = %168
  store i8 1, ptr @bsysscan, align 1
  br label %187

187:                                              ; preds = %186, %168
  %188 = load ptr, ptr %11, align 8
  call void @llvm.lifetime.end.p0(i64 8, ptr %13) #7
  call void @llvm.lifetime.end.p0(i64 4, ptr %12) #7
  call void @llvm.lifetime.end.p0(i64 8, ptr %11) #7
  ret ptr %188
}