; Function Attrs: nounwind uwtable
define dso_local noundef ptr @systable_beginscan_ordered(ptr noundef %0, ptr noundef %1, ptr noundef %2, i32 noundef %3, ptr noundef readonly captures(none) %4) local_unnamed_addr #0 {
  %6 = getelementptr inbounds nuw i8, ptr %1, i64 72
  %7 = load i32, ptr %6, align 8
  %8 = tail call zeroext i1 @ReindexIsProcessingIndex(i32 noundef %7) #7
  br i1 %8, label %9, label %16

9:                                                ; preds = %5
  %10 = tail call zeroext i1 @errstart_cold(i32 noundef 21, ptr noundef null) #8
  tail call void @llvm.assume(i1 %10)
  %11 = tail call i32 @errcode(i32 noundef 1088) #7
  %12 = getelementptr inbounds nuw i8, ptr %1, i64 56
  %13 = load ptr, ptr %12, align 8
  %14 = getelementptr inbounds nuw i8, ptr %13, i64 4
  %15 = tail call i32 (ptr, ...) @errmsg(ptr noundef nonnull @.str.6, ptr noundef nonnull %14) #7
  tail call void @errfinish(ptr noundef nonnull @.str.4, i32 noundef 667, ptr noundef nonnull @__func__.systable_beginscan_ordered) #7
  unreachable

16:                                               ; preds = %5
  %17 = load i8, ptr @IgnoreSystemIndexes, align 1, !range !6, !noundef !7
  %18 = trunc nuw i8 %17 to i1
  br i1 %18, label %19, label %26

19:                                               ; preds = %16
  %20 = tail call zeroext i1 @errstart(i32 noundef 19, ptr noundef null) #7
  br i1 %20, label %21, label %26

21:                                               ; preds = %19
  %22 = getelementptr inbounds nuw i8, ptr %1, i64 56
  %23 = load ptr, ptr %22, align 8
  %24 = getelementptr inbounds nuw i8, ptr %23, i64 4
  %25 = tail call i32 (ptr, ...) @errmsg_internal(ptr noundef nonnull @.str.7, ptr noundef nonnull %24) #7
  tail call void @errfinish(ptr noundef nonnull @.str.4, i32 noundef 671, ptr noundef nonnull @__func__.systable_beginscan_ordered) #7
  br label %26

26:                                               ; preds = %19, %21, %16
  %27 = tail call ptr @palloc(i64 noundef 48) #7
  store ptr %0, ptr %27, align 8
  %28 = getelementptr inbounds nuw i8, ptr %27, i64 8
  store ptr %1, ptr %28, align 8
  %29 = tail call ptr @table_slot_create(ptr noundef %0, ptr noundef null) #7
  %30 = getelementptr inbounds nuw i8, ptr %27, i64 40
  store ptr %29, ptr %30, align 8
  %31 = icmp eq ptr %2, null
  br i1 %31, label %32, label %37

32:                                               ; preds = %26
  %33 = getelementptr inbounds nuw i8, ptr %0, i64 72
  %34 = load i32, ptr %33, align 8
  %35 = tail call ptr @GetCatalogSnapshot(i32 noundef %34) #7
  %36 = tail call ptr @RegisterSnapshot(ptr noundef %35) #7
  br label %37

37:                                               ; preds = %26, %32
  %.sink = phi ptr [ %36, %32 ], [ null, %26 ]
  %.045 = phi ptr [ %36, %32 ], [ %2, %26 ]
  %38 = getelementptr inbounds nuw i8, ptr %27, i64 32
  store ptr %.sink, ptr %38, align 8
  %39 = sext i32 %3 to i64
  %40 = mul nsw i64 %39, 72
  %41 = tail call ptr @palloc(i64 noundef %40) #7
  %42 = icmp sgt i32 %3, 0
  br i1 %42, label %.lr.ph54, label %._crit_edge

.lr.ph54:                                         ; preds = %37
  %43 = getelementptr inbounds nuw i8, ptr %1, i64 328
  %wide.trip.count60 = zext nneg i32 %3 to i64
  br label %45

44:                                               ; preds = %.loopexit
  %indvars.iv.next58 = add nuw nsw i64 %indvars.iv57, 1
  %exitcond61.not = icmp eq i64 %indvars.iv.next58, %wide.trip.count60
  br i1 %exitcond61.not, label %._crit_edge, label %45, !llvm.loop !13

45:                                               ; preds = %.lr.ph54, %44
  %indvars.iv57 = phi i64 [ 0, %.lr.ph54 ], [ %indvars.iv.next58, %44 ]
  %46 = getelementptr inbounds nuw %struct.ScanKeyData, ptr %41, i64 %indvars.iv57
  %47 = getelementptr inbounds nuw %struct.ScanKeyData, ptr %4, i64 %indvars.iv57
  tail call void @llvm.memcpy.p0.p0.i64(ptr noundef nonnull align 8 dereferenceable(72) %46, ptr noundef nonnull align 8 dereferenceable(72) %47, i64 72, i1 false)
  %48 = load ptr, ptr %43, align 8
  %49 = getelementptr inbounds nuw i8, ptr %48, i64 8
  %50 = load i16, ptr %49, align 4
  %51 = sext i16 %50 to i32
  %52 = icmp sgt i16 %50, 0
  br i1 %52, label %.lr.ph, label %.loopexit

.lr.ph:                                           ; preds = %45
  %53 = getelementptr inbounds nuw i8, ptr %47, i64 4
  %54 = load i16, ptr %53, align 4
  %55 = getelementptr inbounds nuw i8, ptr %48, i64 48
  %wide.trip.count = zext nneg i32 %51 to i64
  br label %56

56:                                               ; preds = %.lr.ph, %65
  %indvars.iv = phi i64 [ 0, %.lr.ph ], [ %indvars.iv.next, %65 ]
  %57 = getelementptr inbounds nuw [0 x i16], ptr %55, i64 0, i64 %indvars.iv
  %58 = load i16, ptr %57, align 2
  %59 = icmp eq i16 %54, %58
  br i1 %59, label %60, label %65

60:                                               ; preds = %56
  %61 = trunc nuw nsw i64 %indvars.iv to i32
  %62 = trunc i64 %indvars.iv to i16
  %63 = add i16 %62, 1
  %64 = getelementptr inbounds nuw i8, ptr %46, i64 4
  store i16 %63, ptr %64, align 4
  %.pre = load ptr, ptr %43, align 8
  %.phi.trans.insert = getelementptr inbounds nuw i8, ptr %.pre, i64 8
  %.pre62 = load i16, ptr %.phi.trans.insert, align 4
  %.pre63 = sext i16 %.pre62 to i32
  br label %.loopexit

65:                                               ; preds = %56
  %indvars.iv.next = add nuw nsw i64 %indvars.iv, 1
  %exitcond.not = icmp eq i64 %indvars.iv.next, %wide.trip.count
  br i1 %exitcond.not, label %.loopexit.thread, label %56, !llvm.loop !14

.loopexit:                                        ; preds = %45, %60
  %.pre-phi = phi i32 [ %51, %45 ], [ %.pre63, %60 ]
  %.051 = phi i32 [ 0, %45 ], [ %61, %60 ]
  %66 = icmp eq i32 %.051, %.pre-phi
  br i1 %66, label %.loopexit.thread, label %44

.loopexit.thread:                                 ; preds = %.loopexit, %65
  %67 = tail call zeroext i1 @errstart_cold(i32 noundef 21, ptr noundef null) #8
  tail call void @llvm.assume(i1 %67)
  %68 = tail call i32 (ptr, ...) @errmsg_internal(ptr noundef nonnull @.str.3) #7
  tail call void @errfinish(ptr noundef nonnull @.str.4, i32 noundef 710, ptr noundef nonnull @__func__.systable_beginscan_ordered) #7
  unreachable

._crit_edge:                                      ; preds = %44, %37
  %69 = tail call ptr @index_beginscan(ptr noundef %0, ptr noundef nonnull %1, ptr noundef %.045, i32 noundef %3, i32 noundef 0) #7
  %70 = getelementptr inbounds nuw i8, ptr %27, i64 24
  store ptr %69, ptr %70, align 8
  tail call void @index_rescan(ptr noundef %69, ptr noundef %41, i32 noundef %3, ptr noundef null, i32 noundef 0) #7
  %71 = getelementptr inbounds nuw i8, ptr %27, i64 16
  store ptr null, ptr %71, align 8
  tail call void @pfree(ptr noundef %41) #7
  %72 = load i32, ptr @CheckXidAlive, align 4
  %.not = icmp eq i32 %72, 0
  br i1 %.not, label %74, label %73

73:                                               ; preds = %._crit_edge
  store i8 1, ptr @bsysscan, align 1
  br label %74

74:                                               ; preds = %73, %._crit_edge
  ret ptr %27
}